; Function Attrs: mustprogress uwtable
define internal noundef zeroext i1 @_ZN12_GLOBAL__N_14Pipe6isOpenEv(ptr noundef nonnull align 8 dereferenceable(185) %0) unnamed_addr #0 align 2 personality ptr @__gxx_personality_v0 {
  %2 = getelementptr inbounds i8, ptr %0, i64 16
  %3 = tail call noundef i32 @pthread_mutex_lock(ptr noundef nonnull %2) #23
  %.not.i.i.i = icmp eq i32 %3, 0
  br i1 %.not.i.i.i, label %_ZNSt11unique_lockISt5mutexED2Ev.exit, label %4

4:                                                ; preds = %1
  tail call void @_ZSt20__throw_system_errori(i32 noundef %3) #25
  unreachable

_ZNSt11unique_lockISt5mutexED2Ev.exit:            ; preds = %1
  %5 = getelementptr inbounds i8, ptr %0, i64 184
  %6 = load i8, ptr %5, align 8
  %7 = and i8 %6, 1
  %.not = icmp eq i8 %7, 0
  %8 = tail call noundef i32 @pthread_mutex_unlock(ptr noundef nonnull %2) #23
  ret i1 %.not
}